; Function Attrs: mustprogress uwtable
define noundef ptr @_ZN6icu_7728FilteredBreakIteratorBuilder19createEmptyInstanceER10UErrorCode(ptr noundef nonnull align 4 dereferenceable(4) %0) local_unnamed_addr #2 align 2 personality ptr @__gxx_personality_v0 {
  %2 = load i32, ptr %0, align 4, !tbaa !28
  %3 = icmp slt i32 %2, 1
  br i1 %3, label %4, label %_ZN6icu_7712LocalPointerINS_28FilteredBreakIteratorBuilderEED2Ev.exit

4:                                                ; preds = %1
  %5 = tail call noundef ptr @_ZN6icu_777UMemorynwEm(i64 noundef 48) #14
  %6 = icmp eq ptr %5, null
  br i1 %6, label %8, label %7

7:                                                ; preds = %4
  invoke void @_ZN6icu_7734SimpleFilteredBreakIteratorBuilderC1ER10UErrorCode(ptr noundef nonnull align 8 dereferenceable(48) %5, ptr noundef nonnull align 4 dereferenceable(4) %0)
          to label %_ZN6icu_7712LocalPointerINS_28FilteredBreakIteratorBuilderEEC2EPS1_R10UErrorCode.exit unwind label %17

8:                                                ; preds = %4
  %9 = load i32, ptr %0, align 4
  %10 = icmp sgt i32 %9, 0
  br i1 %10, label %_ZN6icu_7712LocalPointerINS_28FilteredBreakIteratorBuilderEED2Ev.exit, label %11

11:                                               ; preds = %8
  store i32 7, ptr %0, align 4, !tbaa !28
  br label %_ZN6icu_7712LocalPointerINS_28FilteredBreakIteratorBuilderEED2Ev.exit

_ZN6icu_7712LocalPointerINS_28FilteredBreakIteratorBuilderEEC2EPS1_R10UErrorCode.exit: ; preds = %7
  %.pre = load i32, ptr %0, align 4, !tbaa !28
  %12 = icmp sgt i32 %.pre, 0
  br i1 %12, label %13, label %_ZN6icu_7712LocalPointerINS_28FilteredBreakIteratorBuilderEED2Ev.exit

13:                                               ; preds = %_ZN6icu_7712LocalPointerINS_28FilteredBreakIteratorBuilderEEC2EPS1_R10UErrorCode.exit
  %14 = load ptr, ptr %5, align 8, !tbaa !3
  %15 = getelementptr inbounds nuw i8, ptr %14, i64 8
  %16 = load ptr, ptr %15, align 8
  tail call void %16(ptr noundef nonnull align 8 dereferenceable(8) %5) #14
  br label %_ZN6icu_7712LocalPointerINS_28FilteredBreakIteratorBuilderEED2Ev.exit

17:                                               ; preds = %7
  %18 = landingpad { ptr, i32 }
          cleanup
  tail call void @_ZN6icu_777UMemorydlEPv(ptr noundef nonnull %5) #14
  resume { ptr, i32 } %18

_ZN6icu_7712LocalPointerINS_28FilteredBreakIteratorBuilderEED2Ev.exit: ; preds = %8, %11, %_ZN6icu_7712LocalPointerINS_28FilteredBreakIteratorBuilderEEC2EPS1_R10UErrorCode.exit, %13, %1
  %.0 = phi ptr [ null, %1 ], [ null, %13 ], [ %5, %_ZN6icu_7712LocalPointerINS_28FilteredBreakIteratorBuilderEEC2EPS1_R10UErrorCode.exit ], [ null, %11 ], [ null, %8 ]
  ret ptr %.0
}